; Function Attrs: nounwind uwtable
define ptr @l_Std_Range_forIn_x27_loop___at___private_Lean_Meta_Canonicalizer_0__Lean_Meta_Canonicalizer_mkKey___spec__2___boxed(ptr noundef %0, ptr noundef %1, ptr noundef %2, ptr noundef %3, ptr noundef %4, ptr noundef %5, ptr noundef %6, ptr noundef readnone captures(none) %7, ptr noundef readnone captures(none) %8, ptr noundef %9, ptr noundef %10, ptr noundef %11, ptr noundef %12, ptr noundef %13, ptr noundef %14, ptr noundef %15) local_unnamed_addr #2 {
  %17 = getelementptr i8, ptr %5, i64 8
  %.val = load i64, ptr %17, align 8, !tbaa !12
  %18 = ptrtoint ptr %5 to i64
  %19 = and i64 %18, 1
  %.not = icmp eq i64 %19, 0
  br i1 %.not, label %20, label %lean_dec.exit32

20:                                               ; preds = %16
  %21 = load i32, ptr %5, align 4, !tbaa !8
  %22 = icmp sgt i32 %21, 1
  br i1 %22, label %23, label %25, !prof !11

23:                                               ; preds = %20
  %24 = add nsw i32 %21, -1
  store i32 %24, ptr %5, align 4, !tbaa !8
  br label %lean_dec.exit32

25:                                               ; preds = %20
  %.not.i = icmp eq i32 %21, 0
  br i1 %.not.i, label %lean_dec.exit32, label %26

26:                                               ; preds = %25
  tail call void @lean_dec_ref_cold(ptr noundef nonnull %5) #6
  br label %lean_dec.exit32

lean_dec.exit32:                                  ; preds = %26, %25, %23, %16
  %27 = ptrtoint ptr %9 to i64
  %28 = lshr i64 %27, 1
  %29 = trunc i64 %28 to i8
  %30 = and i64 %27, 1
  %.not47 = icmp eq i64 %30, 0
  br i1 %.not47, label %31, label %lean_dec.exit31

31:                                               ; preds = %lean_dec.exit32
  %32 = load i32, ptr %9, align 4, !tbaa !8
  %33 = icmp sgt i32 %32, 1
  br i1 %33, label %34, label %36, !prof !11

34:                                               ; preds = %31
  %35 = add nsw i32 %32, -1
  store i32 %35, ptr %9, align 4, !tbaa !8
  br label %lean_dec.exit31

36:                                               ; preds = %31
  %.not.i33 = icmp eq i32 %32, 0
  br i1 %.not.i33, label %lean_dec.exit31, label %37

37:                                               ; preds = %36
  tail call void @lean_dec_ref_cold(ptr noundef nonnull %9) #6
  br label %lean_dec.exit31

lean_dec.exit31:                                  ; preds = %37, %36, %34, %lean_dec.exit32
  %38 = tail call ptr @l_Std_Range_forIn_x27_loop___at___private_Lean_Meta_Canonicalizer_0__Lean_Meta_Canonicalizer_mkKey___spec__2(ptr noundef %0, ptr noundef %1, ptr noundef %2, ptr poison, ptr noundef %4, i64 noundef %.val, ptr noundef %6, ptr poison, ptr poison, i8 noundef zeroext %29, ptr noundef %10, ptr noundef %11, ptr noundef %12, ptr noundef %13, ptr noundef %14, ptr noundef %15)
  %39 = ptrtoint ptr %10 to i64
  %40 = and i64 %39, 1
  %.not48 = icmp eq i64 %40, 0
  br i1 %.not48, label %41, label %lean_dec.exit30

41:                                               ; preds = %lean_dec.exit31
  %42 = load i32, ptr %10, align 4, !tbaa !8
  %43 = icmp sgt i32 %42, 1
  br i1 %43, label %44, label %46, !prof !11

44:                                               ; preds = %41
  %45 = add nsw i32 %42, -1
  store i32 %45, ptr %10, align 4, !tbaa !8
  br label %lean_dec.exit30

46:                                               ; preds = %41
  %.not.i35 = icmp eq i32 %42, 0
  br i1 %.not.i35, label %lean_dec.exit30, label %47

47:                                               ; preds = %46
  tail call void @lean_dec_ref_cold(ptr noundef nonnull %10) #6
  br label %lean_dec.exit30

lean_dec.exit30:                                  ; preds = %47, %46, %44, %lean_dec.exit31
  %48 = ptrtoint ptr %4 to i64
  %49 = and i64 %48, 1
  %.not49 = icmp eq i64 %49, 0
  br i1 %.not49, label %50, label %lean_dec.exit29

50:                                               ; preds = %lean_dec.exit30
  %51 = load i32, ptr %4, align 4, !tbaa !8
  %52 = icmp sgt i32 %51, 1
  br i1 %52, label %53, label %55, !prof !11

53:                                               ; preds = %50
  %54 = add nsw i32 %51, -1
  store i32 %54, ptr %4, align 4, !tbaa !8
  br label %lean_dec.exit29

55:                                               ; preds = %50
  %.not.i37 = icmp eq i32 %51, 0
  br i1 %.not.i37, label %lean_dec.exit29, label %56

56:                                               ; preds = %55
  tail call void @lean_dec_ref_cold(ptr noundef nonnull %4) #6
  br label %lean_dec.exit29

lean_dec.exit29:                                  ; preds = %56, %55, %53, %lean_dec.exit30
  %57 = ptrtoint ptr %3 to i64
  %58 = and i64 %57, 1
  %.not50 = icmp eq i64 %58, 0
  br i1 %.not50, label %59, label %lean_dec.exit28

59:                                               ; preds = %lean_dec.exit29
  %60 = load i32, ptr %3, align 4, !tbaa !8
  %61 = icmp sgt i32 %60, 1
  br i1 %61, label %62, label %64, !prof !11

62:                                               ; preds = %59
  %63 = add nsw i32 %60, -1
  store i32 %63, ptr %3, align 4, !tbaa !8
  br label %lean_dec.exit28

64:                                               ; preds = %59
  %.not.i39 = icmp eq i32 %60, 0
  br i1 %.not.i39, label %lean_dec.exit28, label %65

65:                                               ; preds = %64
  tail call void @lean_dec_ref_cold(ptr noundef nonnull %3) #6
  br label %lean_dec.exit28

lean_dec.exit28:                                  ; preds = %65, %64, %62, %lean_dec.exit29
  %66 = ptrtoint ptr %2 to i64
  %67 = and i64 %66, 1
  %.not51 = icmp eq i64 %67, 0
  br i1 %.not51, label %68, label %lean_dec.exit27

68:                                               ; preds = %lean_dec.exit28
  %69 = load i32, ptr %2, align 4, !tbaa !8
  %70 = icmp sgt i32 %69, 1
  br i1 %70, label %71, label %73, !prof !11

71:                                               ; preds = %68
  %72 = add nsw i32 %69, -1
  store i32 %72, ptr %2, align 4, !tbaa !8
  br label %lean_dec.exit27

73:                                               ; preds = %68
  %.not.i41 = icmp eq i32 %69, 0
  br i1 %.not.i41, label %lean_dec.exit27, label %74

74:                                               ; preds = %73
  tail call void @lean_dec_ref_cold(ptr noundef nonnull %2) #6
  br label %lean_dec.exit27

lean_dec.exit27:                                  ; preds = %74, %73, %71, %lean_dec.exit28
  %75 = ptrtoint ptr %1 to i64
  %76 = and i64 %75, 1
  %.not52 = icmp eq i64 %76, 0
  br i1 %.not52, label %77, label %lean_dec.exit26

77:                                               ; preds = %lean_dec.exit27
  %78 = load i32, ptr %1, align 4, !tbaa !8
  %79 = icmp sgt i32 %78, 1
  br i1 %79, label %80, label %82, !prof !11

80:                                               ; preds = %77
  %81 = add nsw i32 %78, -1
  store i32 %81, ptr %1, align 4, !tbaa !8
  br label %lean_dec.exit26

82:                                               ; preds = %77
  %.not.i43 = icmp eq i32 %78, 0
  br i1 %.not.i43, label %lean_dec.exit26, label %83

83:                                               ; preds = %82
  tail call void @lean_dec_ref_cold(ptr noundef nonnull %1) #6
  br label %lean_dec.exit26

lean_dec.exit26:                                  ; preds = %83, %82, %80, %lean_dec.exit27
  %84 = ptrtoint ptr %0 to i64
  %85 = and i64 %84, 1
  %.not53 = icmp eq i64 %85, 0
  br i1 %.not53, label %86, label %lean_dec.exit

86:                                               ; preds = %lean_dec.exit26
  %87 = load i32, ptr %0, align 4, !tbaa !8
  %88 = icmp sgt i32 %87, 1
  br i1 %88, label %89, label %91, !prof !11

89:                                               ; preds = %86
  %90 = add nsw i32 %87, -1
  store i32 %90, ptr %0, align 4, !tbaa !8
  br label %lean_dec.exit

91:                                               ; preds = %86
  %.not.i45 = icmp eq i32 %87, 0
  br i1 %.not.i45, label %lean_dec.exit, label %92

92:                                               ; preds = %91
  tail call void @lean_dec_ref_cold(ptr noundef nonnull %0) #6
  br label %lean_dec.exit

lean_dec.exit:                                    ; preds = %92, %91, %89, %lean_dec.exit26
  ret ptr %38
}